(dp0
I0
(dp1
(I1
I3
tp2
I0
s(I6
I6
tp3
I0
s(I3
I0
tp4
I0
s(I3
I2
tp5
I0
s(I2
I1
tp6
I0
s(I0
I0
tp7
I0
s(I1
I6
tp8
I0
s(I5
I1
tp9
I0
s(I2
I5
tp10
I0
s(I0
I3
tp11
I0
s(I4
I0
tp12
I0
s(I1
I2
tp13
I0
s(I3
I3
tp14
I0
s(I1
I5
tp15
I0
s(I4
I4
tp16
I0
s(I6
I3
tp17
I0
s(I5
I6
tp18
I0
s(I3
I6
tp19
I0
s(I2
I2
tp20
I0
s(I3
I5
tp21
I0
s(I4
I1
tp22
I0
s(I1
I1
tp23
I0
s(I6
I4
tp24
I0
s(I5
I4
tp25
I0
s(I2
I6
tp26
I0
s(I5
I0
tp27
I0
s(I4
I5
tp28
I0
s(I0
I4
tp29
I0
s(I5
I5
tp30
I0
s(I1
I4
tp31
I0
s(I6
I0
tp32
I0
s(I2
I3
tp33
I0
s(I2
I4
tp34
I0
s(I4
I2
tp35
I0
s(I1
I0
tp36
I0
s(I6
I5
tp37
I0
s(I5
I3
tp38
I0
s(I0
I1
tp39
I0
s(I4
I6
tp40
I0
s(I3
I4
tp41
I0
s(I6
I1
tp42
I0
s(I3
I1
tp43
I0
s(I0
I6
tp44
I0
s(I2
I0
tp45
I0
s(I6
I2
tp46
I0
s(I4
I3
tp47
I0
s(I0
I5
tp48
I0
s(I5
I2
tp49
I0
s(I0
I2
tp50
I0
ssI1
(dp51
g2
I0
sg3
I0
sg4
I2
sg5
I1
sg6
I1
sg7
I0
sg8
I-1
sg9
I3
sg10
I0
sg11
I-1
sg12
I3
sg13
I0
sg14
I1
sg15
I-1
sg16
I1
sg17
I2
sg18
I0
sg19
I0
sg20
I1
sg21
I0
sg22
I2
sg23
I1
sg24
I2
sg25
I1
sg26
I-1
sg27
I3
sg28
I1
sg29
I-1
sg30
I1
sg31
I-1
sg32
I3
sg33
I0
sg34
I0
sg35
I2
sg36
I1
sg37
I1
sg38
I2
sg39
I0
sg40
I0
sg41
I0
sg42
I3
sg43
I2
sg44
I-2
sg45
I1
sg46
I3
sg47
I1
sg48
I-2
sg49
I2
sg50
I0
ssI2
(dp52
g2
I0
sg3
I0
sg4
I2
sg5
I1
sg6
I1
sg7
I0
sg8
I-1
sg9
I3
sg10
I0
sg11
I-1
sg12
I3
sg13
I0
sg14
I1
sg15
I-1
sg16
I1
sg17
I2
sg18
I0
sg19
I0
sg20
I1
sg21
I0
sg22
I2
sg23
I1
sg24
I2
sg25
I1
sg26
I-1
sg27
I3
sg28
I0
sg29
I-1
sg30
I1
sg31
I-1
sg32
I3
sg33
I0
sg34
I0
sg35
I2
sg36
I1
sg37
I1
sg38
I2
sg39
I0
sg40
I0
sg41
I0
sg42
I3
sg43
I2
sg44
I-2
sg45
I1
sg46
I3
sg47
I1
sg48
I-2
sg49
I2
sg50
I0
ssI3
(dp53
g2
I0
sg3
I0
sg4
I2
sg5
I1
sg6
I1
sg7
I0
sg8
I-1
sg9
I3
sg10
I0
sg11
I-1
sg12
I3
sg13
I0
sg14
I1
sg15
I-1
sg16
I1
sg17
I2
sg18
I0
sg19
I0
sg20
I1
sg21
I0
sg22
I2
sg23
I1
sg24
I2
sg25
I1
sg26
I-1
sg27
I3
sg28
I0
sg29
I-1
sg30
I1
sg31
I-1
sg32
I3
sg33
I0
sg34
I0
sg35
I2
sg36
I1
sg37
I1
sg38
I2
sg39
I0
sg40
I0
sg41
I0
sg42
I3
sg43
I2
sg44
I-2
sg45
I1
sg46
I3
sg47
I1
sg48
I-2
sg49
I2
sg50
I0
ss.