(dp0
(I7
I3
tp1
I2
s(I16
I9
tp2
I1
s(I19
I4
tp3
I4
s(I17
I20
tp4
I0
s(I20
I7
tp5
I0
s(I18
I19
tp6
I0
s(I8
I5
tp7
I2
s(I9
I0
tp8
I5
s(I10
I7
tp9
I1
s(I0
I17
tp10
I-5
s(I14
I1
tp11
I5
s(I12
I17
tp12
I-3
s(I15
I4
tp13
I1
s(I13
I20
tp14
I0
s(I3
I2
tp15
I1
s(I4
I5
tp16
I-1
s(I16
I0
tp17
I5
s(I19
I13
tp18
I3
s(I17
I13
tp19
I0
s(I20
I14
tp20
I-1
s(I18
I10
tp21
I1
s(I8
I12
tp22
I-2
s(I9
I9
tp23
I0
s(I10
I14
tp24
I-1
s(I8
I18
tp25
I-2
s(I11
I15
tp26
I2
s(I9
I19
tp27
I0
s(I14
I8
tp28
I0
s(I12
I8
tp29
I1
s(I15
I13
tp30
I1
s(I13
I13
tp31
I1
s(I2
I18
tp32
I-4
s(I0
I14
tp33
I-5
s(I3
I11
tp34
I-4
s(I1
I15
tp35
I-4
s(I4
I12
tp36
I-2
s(I2
I12
tp37
I-4
s(I5
I1
tp38
I3
s(I3
I17
tp39
I-2
s(I16
I7
tp40
I1
s(I6
I14
tp41
I-1
s(I19
I18
tp42
I1
s(I17
I6
tp43
I1
s(I7
I15
tp44
I1
s(I18
I5
tp45
I1
s(I10
I9
tp46
I0
s(I11
I4
tp47
I3
s(I9
I20
tp48
I-3
s(I14
I19
tp49
I0
s(I12
I7
tp50
I3
s(I10
I19
tp51
I0
s(I15
I10
tp52
I2
s(I13
I6
tp53
I3
s(I0
I5
tp54
I-2
s(I1
I0
tp55
I1
s(I4
I11
tp56
I-3
s(I2
I7
tp57
I-2
s(I5
I10
tp58
I-2
s(I6
I1
tp59
I3
s(I4
I17
tp60
I-2
s(I7
I4
tp61
I1
s(I5
I20
tp62
I-3
s(I16
I20
tp63
I-2
s(I19
I1
tp64
I5
s(I17
I17
tp65
I2
s(I8
I0
tp66
I5
s(I15
I19
tp67
I-1
s(I11
I19
tp68
I0
s(I12
I20
tp69
I0
s(I16
I11
tp70
I-1
s(I6
I18
tp71
I-4
s(I19
I6
tp72
I2
s(I17
I10
tp73
I0
s(I20
I1
tp74
I5
s(I18
I17
tp75
I0
s(I8
I7
tp76
I0
s(I9
I6
tp77
I3
s(I10
I5
tp78
I2
s(I11
I8
tp79
I0
s(I0
I19
tp80
I-5
s(I14
I7
tp81
I1
s(I12
I19
tp82
I2
s(I1
I18
tp83
I-4
s(I15
I6
tp84
I1
s(I13
I18
tp85
I-1
s(I0
I9
tp86
I-5
s(I3
I4
tp87
I0
s(I4
I7
tp88
I-1
s(I5
I6
tp89
I0
s(I16
I2
tp90
I5
s(I19
I15
tp91
I0
s(I17
I3
tp92
I3
s(I7
I16
tp93
I0
s(I20
I8
tp94
I0
s(I18
I8
tp95
I0
s(I8
I14
tp96
I0
s(I9
I15
tp97
I0
s(I10
I12
tp98
I0
s(I8
I20
tp99
I-1
s(I11
I1
tp100
I5
s(I9
I17
tp101
I0
s(I14
I14
tp102
I1
s(I12
I10
tp103
I1
s(I15
I15
tp104
I-1
s(I13
I11
tp105
I-1
s(I2
I16
tp106
I-5
s(I0
I0
tp107
I0
s(I3
I13
tp108
I-2
s(I1
I13
tp109
I-3
s(I4
I14
tp110
I-2
s(I2
I10
tp111
I-2
s(I5
I15
tp112
I-1
s(I3
I19
tp113
I-5
s(I6
I12
tp114
I-1
s(I4
I20
tp115
I-2
s(I19
I20
tp116
I-1
s(I17
I4
tp117
I3
s(I7
I9
tp118
I0
s(I18
I3
tp119
I5
s(I11
I6
tp120
I1
s(I14
I17
tp121
I-1
s(I12
I1
tp122
I5
s(I10
I17
tp123
I2
s(I15
I20
tp124
I-1
s(I13
I4
tp125
I3
s(I0
I7
tp126
I-1
s(I1
I6
tp127
I-1
s(I2
I5
tp128
I-1
s(I5
I8
tp129
I0
s(I6
I7
tp130
I0
s(I4
I19
tp131
I-4
s(I7
I6
tp132
I1
s(I5
I18
tp133
I-1
s(I19
I3
tp134
I3
s(I20
I4
tp135
I3
s(I18
I20
tp136
I-1
s(I8
I2
tp137
I3
s(I9
I3
tp138
I4
s(I14
I2
tp139
I5
s(I3
I1
tp140
I1
s(I16
I13
tp141
I1
s(I6
I16
tp142
I0
s(I19
I8
tp143
I0
s(I17
I8
tp144
I0
s(I20
I3
tp145
I4
s(I18
I15
tp146
I1
s(I8
I9
tp147
I0
s(I9
I4
tp148
I4
s(I10
I3
tp149
I4
s(I11
I10
tp150
I0
s(I14
I5
tp151
I5
s(I12
I13
tp152
I1
s(I1
I16
tp153
I-4
s(I15
I0
tp154
I5
s(I13
I16
tp155
I0
s(I0
I11
tp156
I-4
s(I3
I6
tp157
I0
s(I1
I10
tp158
I-4
s(I4
I1
tp159
I2
s(I5
I4
tp160
I1
s(I16
I4
tp161
I5
s(I6
I11
tp162
I-1
s(I19
I17
tp163
I1
s(I17
I1
tp164
I5
s(I7
I18
tp165
I-2
s(I20
I10
tp166
I0
s(I18
I6
tp167
I2
s(I9
I13
tp168
I0
s(I10
I10
tp169
I0
s(I11
I3
tp170
I4
s(I14
I12
tp171
I0
s(I12
I4
tp172
I3
s(I10
I20
tp173
I0
s(I15
I9
tp174
I1
s(I13
I9
tp175
I0
s(I0
I2
tp176
I0
s(I3
I15
tp177
I-3
s(I1
I3
tp178
I0
s(I4
I8
tp179
I-1
s(I2
I8
tp180
I-2
s(I5
I13
tp181
I-2
s(I6
I2
tp182
I3
s(I7
I11
tp183
I0
s(I20
I17
tp184
I0
s(I18
I1
tp185
I5
s(I16
I17
tp186
I-3
s(I12
I3
tp187
I3
s(I13
I2
tp188
I3
s(I1
I4
tp189
I0
s(I2
I3
tp190
I0
s(I6
I5
tp191
I1
s(I7
I0
tp192
I5
s(I5
I16
tp193
I0
s(I16
I8
tp194
I0
s(I19
I5
tp195
I5
s(I20
I6
tp196
I3
s(I18
I18
tp197
I0
s(I8
I4
tp198
I2
s(I9
I1
tp199
I4
s(I10
I6
tp200
I3
s(I0
I16
tp201
I-5
s(I14
I0
tp202
I5
s(I12
I16
tp203
I-1
s(I15
I5
tp204
I3
s(I3
I3
tp205
I0
s(I4
I4
tp206
I1
s(I16
I15
tp207
I1
s(I19
I10
tp208
I-1
s(I17
I14
tp209
I1
s(I20
I13
tp210
I-1
s(I18
I13
tp211
I-2
s(I8
I11
tp212
I-1
s(I9
I10
tp213
I2
s(I10
I1
tp214
I5
s(I8
I17
tp215
I0
s(I11
I12
tp216
I-1
s(I14
I11
tp217
I1
s(I12
I15
tp218
I1
s(I15
I2
tp219
I4
s(I13
I14
tp220
I0
s(I0
I13
tp221
I-5
s(I3
I8
tp222
I-1
s(I1
I8
tp223
I-2
s(I4
I3
tp224
I1
s(I2
I15
tp225
I-4
s(I5
I2
tp226
I2
s(I16
I6
tp227
I1
s(I6
I9
tp228
I1
s(I19
I19
tp229
I0
s(I17
I7
tp230
I0
s(I7
I12
tp231
I0
s(I20
I20
tp232
I0
s(I18
I4
tp233
I5
s(I10
I8
tp234
I0
s(I11
I5
tp235
I2
s(I14
I18
tp236
I0
s(I12
I6
tp237
I0
s(I10
I18
tp238
I0
s(I15
I11
tp239
I1
s(I13
I7
tp240
I2
s(I0
I4
tp241
I-1
s(I1
I1
tp242
I0
s(I4
I10
tp243
I-1
s(I2
I6
tp244
I-1
s(I5
I11
tp245
I-3
s(I6
I0
tp246
I4
s(I4
I16
tp247
I-1
s(I7
I5
tp248
I3
s(I20
I19
tp249
I0
s(I16
I19
tp250
I1
s(I17
I18
tp251
I-1
s(I15
I16
tp252
I-2
s(I13
I0
tp253
I5
s(I11
I16
tp254
I1
s(I2
I1
tp255
I1
s(I7
I2
tp256
I3
s(I16
I10
tp257
I2
s(I19
I7
tp258
I2
s(I17
I11
tp259
I0
s(I20
I0
tp260
I5
s(I18
I16
tp261
I1
s(I8
I6
tp262
I2
s(I9
I7
tp263
I0
s(I10
I4
tp264
I3
s(I11
I9
tp265
I1
s(I0
I18
tp266
I-4
s(I14
I6
tp267
I4
s(I12
I18
tp268
I-3
s(I1
I19
tp269
I-4
s(I15
I7
tp270
I0
s(I13
I19
tp271
I-1
s(I0
I8
tp272
I-3
s(I3
I5
tp273
I0
s(I4
I6
tp274
I0
s(I5
I7
tp275
I0
s(I16
I1
tp276
I5
s(I6
I20
tp277
I0
s(I19
I12
tp278
I0
s(I17
I12
tp279
I0
s(I7
I17
tp280
I0
s(I20
I15
tp281
I0
s(I18
I11
tp282
I0
s(I8
I13
tp283
I-1
s(I9
I8
tp284
I0
s(I10
I15
tp285
I0
s(I8
I19
tp286
I0
s(I11
I14
tp287
I1
s(I9
I18
tp288
I0
s(I14
I9
tp289
I1
s(I12
I9
tp290
I4
s(I1
I20
tp291
I-3
s(I15
I12
tp292
I-1
s(I13
I12
tp293
I1
s(I2
I19
tp294
I-4
s(I0
I15
tp295
I-5
s(I3
I10
tp296
I-3
s(I1
I14
tp297
I-5
s(I4
I13
tp298
I-2
s(I2
I13
tp299
I-4
s(I5
I0
tp300
I3
s(I3
I16
tp301
I-2
s(I6
I15
tp302
I0
s(I17
I5
tp303
I2
s(I7
I14
tp304
I-1
s(I18
I2
tp305
I5
s(I11
I7
tp306
I2
s(I14
I16
tp307
I-1
s(I12
I0
tp308
I5
s(I10
I16
tp309
I0
s(I13
I5
tp310
I4
s(I0
I6
tp311
I-3
s(I1
I7
tp312
I-2
s(I2
I4
tp313
I0
s(I5
I9
tp314
I-2
s(I6
I6
tp315
I2
s(I4
I18
tp316
I-1
s(I7
I7
tp317
I0
s(I5
I19
tp318
I-2
s(I19
I0
tp319
I5
s(I17
I16
tp320
I-1
s(I8
I1
tp321
I4
s(I15
I18
tp322
I-1
s(I11
I18
tp323
I0
s(I16
I12
tp324
I0
s(I6
I19
tp325
I1
s(I19
I9
tp326
I0
s(I17
I9
tp327
I1
s(I20
I2
tp328
I4
s(I18
I14
tp329
I0
s(I8
I8
tp330
I0
s(I9
I5
tp331
I3
s(I10
I2
tp332
I5
s(I11
I11
tp333
I1
s(I0
I20
tp334
I-5
s(I14
I4
tp335
I3
s(I12
I12
tp336
I1
s(I1
I17
tp337
I-4
s(I15
I1
tp338
I5
s(I13
I17
tp339
I0
s(I0
I10
tp340
I-3
s(I3
I7
tp341
I0
s(I1
I11
tp342
I-4
s(I4
I0
tp343
I2
s(I5
I5
tp344
I0
s(I16
I3
tp345
I5
s(I6
I10
tp346
I0
s(I19
I14
tp347
I0
s(I17
I2
tp348
I5
s(I7
I19
tp349
I-2
s(I20
I9
tp350
I2
s(I18
I9
tp351
I0
s(I8
I15
tp352
I0
s(I9
I14
tp353
I-2
s(I10
I13
tp354
I1
s(I11
I0
tp355
I5
s(I9
I16
tp356
I1
s(I14
I15
tp357
I-2
s(I12
I11
tp358
I0
s(I15
I14
tp359
I1
s(I13
I10
tp360
I-1
s(I2
I17
tp361
I-4
s(I0
I1
tp362
I0
s(I3
I12
tp363
I-3
s(I1
I12
tp364
I-3
s(I4
I15
tp365
I-3
s(I2
I11
tp366
I-4
s(I5
I14
tp367
I-1
s(I3
I18
tp368
I-2
s(I6
I13
tp369
I0
s(I7
I8
tp370
I1
s(I20
I16
tp371
I-1
s(I18
I0
tp372
I5
s(I16
I16
tp373
I0
s(I12
I2
tp374
I5
s(I13
I3
tp375
I4
s(I1
I5
tp376
I-1
s(I2
I2
tp377
I1
s(I6
I4
tp378
I1
s(I7
I1
tp379
I3
s(I5
I17
tp380
I0
s(I19
I2
tp381
I5
s(I20
I5
tp382
I2
s(I8
I3
tp383
I2
s(I9
I2
tp384
I5
s(I11
I20
tp385
I1
s(I14
I3
tp386
I3
s(I3
I0
tp387
I2
s(I16
I14
tp388
I-1
s(I6
I17
tp389
I0
s(I19
I11
tp390
I-1
s(I17
I15
tp391
I0
s(I7
I20
tp392
I0
s(I20
I12
tp393
I1
s(I18
I12
tp394
I1
s(I8
I10
tp395
I-2
s(I9
I11
tp396
I0
s(I10
I0
tp397
I5
s(I8
I16
tp398
I-1
s(I11
I13
tp399
I1
s(I14
I10
tp400
I-1
s(I12
I14
tp401
I0
s(I15
I3
tp402
I4
s(I13
I15
tp403
I1
s(I2
I20
tp404
I-3
s(I0
I12
tp405
I-4
s(I3
I9
tp406
I0
s(I1
I9
tp407
I-3
s(I4
I2
tp408
I1
s(I2
I14
tp409
I-3
s(I5
I3
tp410
I1
s(I16
I5
tp411
I1
s(I6
I8
tp412
I0
s(I19
I16
tp413
I2
s(I17
I0
tp414
I5
s(I7
I13
tp415
I0
s(I20
I11
tp416
I0
s(I18
I7
tp417
I1
s(I9
I12
tp418
I0
s(I10
I11
tp419
I1
s(I11
I2
tp420
I5
s(I14
I13
tp421
I3
s(I12
I5
tp422
I2
s(I15
I8
tp423
I0
s(I13
I8
tp424
I0
s(I0
I3
tp425
I-1
s(I3
I14
tp426
I-4
s(I1
I2
tp427
I0
s(I4
I9
tp428
I-1
s(I2
I9
tp429
I-2
s(I5
I12
tp430
I0
s(I3
I20
tp431
I-2
s(I6
I3
tp432
I2
s(I7
I10
tp433
I0
s(I20
I18
tp434
I2
s(I16
I18
tp435
I1
s(I17
I19
tp436
I0
s(I14
I20
tp437
I-1
s(I15
I17
tp438
I2
s(I13
I1
tp439
I5
s(I11
I17
tp440
I0
s(I2
I0
tp441
I1
s.